
build/matrix-mul:     file format elf32-littleriscv


Disassembly of section .text:

80000000 <_start>:
80000000:	ff010113          	addi	sp,sp,-16
80000004:	00112623          	sw	ra,12(sp)
80000008:	00000517          	auipc	a0,0x0
8000000c:	71450513          	addi	a0,a0,1812 # 8000071c <c>
80000010:	00000597          	auipc	a1,0x0
80000014:	70c58593          	addi	a1,a1,1804 # 8000071c <c>
80000018:	00b501b3          	add	gp,a0,a1
8000001c:	4011d193          	srai	gp,gp,0x1
80000020:	00000537          	lui	a0,0x0
80000024:	06b50513          	addi	a0,a0,107 # 6b <_start-0x7fffff95>
80000028:	840005b7          	lui	a1,0x84000
8000002c:	ff058593          	addi	a1,a1,-16 # 83fffff0 <_end+0x3ff6ff0>
80000030:	00a5a023          	sw	a0,0(a1)
80000034:	00000537          	lui	a0,0x0
80000038:	0eb50513          	addi	a0,a0,235 # eb <_start-0x7fffff15>
8000003c:	840005b7          	lui	a1,0x84000
80000040:	ff458593          	addi	a1,a1,-12 # 83fffff4 <_end+0x3ff6ff4>
80000044:	00a5a023          	sw	a0,0(a1)
80000048:	030000ef          	jal	ra,80000078 <main>
8000004c:	84000537          	lui	a0,0x84000
80000050:	ff050513          	addi	a0,a0,-16 # 83fffff0 <_end+0x3ff6ff0>
80000054:	00050067          	jalr	zero,0(a0)
80000058:	00c12083          	lw	ra,12(sp)
8000005c:	01010113          	addi	sp,sp,16
80000060:	00008067          	jalr	zero,0(ra)

80000064 <check>:
80000064:	00051863          	bne	a0,zero,80000074 <check+0x10>
80000068:	84000537          	lui	a0,0x84000
8000006c:	ff450513          	addi	a0,a0,-12 # 83fffff4 <_end+0x3ff6ff4>
80000070:	00050067          	jalr	zero,0(a0)
80000074:	00008067          	jalr	zero,0(ra)

80000078 <main>:
80000078:	fc010113          	addi	sp,sp,-64
8000007c:	02112e23          	sw	ra,60(sp)
80000080:	02812c23          	sw	s0,56(sp)
80000084:	02912a23          	sw	s1,52(sp)
80000088:	03212823          	sw	s2,48(sp)
8000008c:	03312623          	sw	s3,44(sp)
80000090:	03412423          	sw	s4,40(sp)
80000094:	03512223          	sw	s5,36(sp)
80000098:	03612023          	sw	s6,32(sp)
8000009c:	01712e23          	sw	s7,28(sp)
800000a0:	01812c23          	sw	s8,24(sp)
800000a4:	01912a23          	sw	s9,20(sp)
800000a8:	80000b37          	lui	s6,0x80000
800000ac:	71cb0b13          	addi	s6,s6,1820 # 8000071c <c>
800000b0:	80000c37          	lui	s8,0x80000
800000b4:	26cc0c13          	addi	s8,s8,620 # 8000026c <ans>
800000b8:	190b0c93          	addi	s9,s6,400
800000bc:	00000b93          	addi	s7,zero,0
800000c0:	80000437          	lui	s0,0x80000
800000c4:	26c40413          	addi	s0,s0,620 # 8000026c <ans>
800000c8:	00a00913          	addi	s2,zero,10
800000cc:	000c0a93          	addi	s5,s8,0
800000d0:	000b0a13          	addi	s4,s6,0
800000d4:	00000493          	addi	s1,zero,0
800000d8:	002b9993          	slli	s3,s7,0x2
800000dc:	017989b3          	add	s3,s3,s7
800000e0:	00199993          	slli	s3,s3,0x1
800000e4:	000a0593          	addi	a1,s4,0
800000e8:	00000613          	addi	a2,zero,0
800000ec:	00000713          	addi	a4,zero,0
800000f0:	00e987b3          	add	a5,s3,a4
800000f4:	00279793          	slli	a5,a5,0x2
800000f8:	00f407b3          	add	a5,s0,a5
800000fc:	1907a683          	lw	a3,400(a5)
80000100:	00271793          	slli	a5,a4,0x2
80000104:	00e787b3          	add	a5,a5,a4
80000108:	00179793          	slli	a5,a5,0x1
8000010c:	009787b3          	add	a5,a5,s1
80000110:	00279793          	slli	a5,a5,0x2
80000114:	00f407b3          	add	a5,s0,a5
80000118:	3207a783          	lw	a5,800(a5)
8000011c:	02f687b3          	mul	a5,a3,a5
80000120:	00f12623          	sw	a5,12(sp)
80000124:	00c12783          	lw	a5,12(sp)
80000128:	00f60633          	add	a2,a2,a5
8000012c:	00170713          	addi	a4,a4,1
80000130:	fd2710e3          	bne	a4,s2,800000f0 <main+0x78>
80000134:	00c5a023          	sw	a2,0(a1)
80000138:	000aa503          	lw	a0,0(s5)
8000013c:	40c50533          	sub	a0,a0,a2
80000140:	00153513          	sltiu	a0,a0,1
80000144:	f21ff0ef          	jal	ra,80000064 <check>
80000148:	00100513          	addi	a0,zero,1
8000014c:	f19ff0ef          	jal	ra,80000064 <check>
80000150:	00148493          	addi	s1,s1,1
80000154:	004a0a13          	addi	s4,s4,4
80000158:	004a8a93          	addi	s5,s5,4
8000015c:	f92494e3          	bne	s1,s2,800000e4 <main+0x6c>
80000160:	00100513          	addi	a0,zero,1
80000164:	f01ff0ef          	jal	ra,80000064 <check>
80000168:	001b8b93          	addi	s7,s7,1
8000016c:	028b0b13          	addi	s6,s6,40
80000170:	028c0c13          	addi	s8,s8,40
80000174:	f59b1ce3          	bne	s6,s9,800000cc <main+0x54>
80000178:	00100513          	addi	a0,zero,1
8000017c:	ee9ff0ef          	jal	ra,80000064 <check>
80000180:	00000513          	addi	a0,zero,0
80000184:	03c12083          	lw	ra,60(sp)
80000188:	03812403          	lw	s0,56(sp)
8000018c:	03412483          	lw	s1,52(sp)
80000190:	03012903          	lw	s2,48(sp)
80000194:	02c12983          	lw	s3,44(sp)
80000198:	02812a03          	lw	s4,40(sp)
8000019c:	02412a83          	lw	s5,36(sp)
800001a0:	02012b03          	lw	s6,32(sp)
800001a4:	01c12b83          	lw	s7,28(sp)
800001a8:	01812c03          	lw	s8,24(sp)
800001ac:	01412c83          	lw	s9,20(sp)
800001b0:	04010113          	addi	sp,sp,64
800001b4:	00008067          	jalr	zero,0(ra)
