
build/min3:     file format elf32-littleriscv


Disassembly of section .text:

80000000 <_start>:
80000000:	ff010113          	addi	sp,sp,-16
80000004:	00112623          	sw	ra,12(sp)
80000008:	00000517          	auipc	a0,0x0
8000000c:	39050513          	addi	a0,a0,912 # 80000398 <_bss_start>
80000010:	00000597          	auipc	a1,0x0
80000014:	38858593          	addi	a1,a1,904 # 80000398 <_bss_start>
80000018:	00b501b3          	add	gp,a0,a1
8000001c:	4011d193          	srai	gp,gp,0x1
80000020:	00000537          	lui	a0,0x0
80000024:	06b50513          	addi	a0,a0,107 # 6b <_start-0x7fffff95>
80000028:	840005b7          	lui	a1,0x84000
8000002c:	ff058593          	addi	a1,a1,-16 # 83fffff0 <_end+0x3ff6ff0>
80000030:	00a5a023          	sw	a0,0(a1)
80000034:	00000537          	lui	a0,0x0
80000038:	0eb50513          	addi	a0,a0,235 # eb <_start-0x7fffff15>
8000003c:	840005b7          	lui	a1,0x84000
80000040:	ff458593          	addi	a1,a1,-12 # 83fffff4 <_end+0x3ff6ff4>
80000044:	00a5a023          	sw	a0,0(a1)
80000048:	04c000ef          	jal	ra,80000094 <main>
8000004c:	84000537          	lui	a0,0x84000
80000050:	ff050513          	addi	a0,a0,-16 # 83fffff0 <_end+0x3ff6ff0>
80000054:	00050067          	jalr	zero,0(a0)
80000058:	00c12083          	lw	ra,12(sp)
8000005c:	01010113          	addi	sp,sp,16
80000060:	00008067          	jalr	zero,0(ra)

80000064 <check>:
80000064:	00051863          	bne	a0,zero,80000074 <check+0x10>
80000068:	84000537          	lui	a0,0x84000
8000006c:	ff450513          	addi	a0,a0,-12 # 83fffff4 <_end+0x3ff6ff4>
80000070:	00050067          	jalr	zero,0(a0)
80000074:	00008067          	jalr	zero,0(ra)

80000078 <min3>:
80000078:	00050793          	addi	a5,a0,0
8000007c:	00058513          	addi	a0,a1,0
80000080:	00b65463          	bge	a2,a1,80000088 <min3+0x10>
80000084:	00060513          	addi	a0,a2,0
80000088:	00a7d463          	bge	a5,a0,80000090 <min3+0x18>
8000008c:	00078513          	addi	a0,a5,0
80000090:	00008067          	jalr	zero,0(ra)

80000094 <main>:
80000094:	fd010113          	addi	sp,sp,-48
80000098:	02112623          	sw	ra,44(sp)
8000009c:	02812423          	sw	s0,40(sp)
800000a0:	02912223          	sw	s1,36(sp)
800000a4:	03212023          	sw	s2,32(sp)
800000a8:	01312e23          	sw	s3,28(sp)
800000ac:	01412c23          	sw	s4,24(sp)
800000b0:	01512a23          	sw	s5,20(sp)
800000b4:	01612823          	sw	s6,16(sp)
800000b8:	01712623          	sw	s7,12(sp)
800000bc:	01812423          	sw	s8,8(sp)
800000c0:	01912223          	sw	s9,4(sp)
800000c4:	01a12023          	sw	s10,0(sp)
800000c8:	800009b7          	lui	s3,0x80000
800000cc:	28898c13          	addi	s8,s3,648 # 80000288 <test_data>
800000d0:	010c0c93          	addi	s9,s8,16
800000d4:	28898993          	addi	s3,s3,648
800000d8:	01000b93          	addi	s7,zero,16
800000dc:	000c8a13          	addi	s4,s9,0
800000e0:	05000d13          	addi	s10,zero,80
800000e4:	07c0006f          	jal	zero,80000160 <main+0xcc>
800000e8:	0004a783          	lw	a5,0(s1)
800000ec:	40f50533          	sub	a0,a0,a5
800000f0:	00153513          	sltiu	a0,a0,1
800000f4:	f71ff0ef          	jal	ra,80000064 <check>
800000f8:	00440413          	addi	s0,s0,4
800000fc:	00448493          	addi	s1,s1,4
80000100:	03440263          	beq	s0,s4,80000124 <main+0x90>
80000104:	00092783          	lw	a5,0(s2)
80000108:	0009a503          	lw	a0,0(s3)
8000010c:	00a7d463          	bge	a5,a0,80000114 <main+0x80>
80000110:	00078513          	addi	a0,a5,0
80000114:	00042783          	lw	a5,0(s0)
80000118:	fca7d8e3          	bge	a5,a0,800000e8 <main+0x54>
8000011c:	00078513          	addi	a0,a5,0
80000120:	fc9ff06f          	jal	zero,800000e8 <main+0x54>
80000124:	004b0b13          	addi	s6,s6,4
80000128:	00100513          	addi	a0,zero,1
8000012c:	f39ff0ef          	jal	ra,80000064 <check>
80000130:	010a8a93          	addi	s5,s5,16
80000134:	00490913          	addi	s2,s2,4
80000138:	017b0863          	beq	s6,s7,80000148 <main+0xb4>
8000013c:	000a8493          	addi	s1,s5,0
80000140:	000c0413          	addi	s0,s8,0
80000144:	fc1ff06f          	jal	zero,80000104 <main+0x70>
80000148:	00100513          	addi	a0,zero,1
8000014c:	f19ff0ef          	jal	ra,80000064 <check>
80000150:	010b8b93          	addi	s7,s7,16
80000154:	00498993          	addi	s3,s3,4
80000158:	040c8c93          	addi	s9,s9,64
8000015c:	01ab8a63          	beq	s7,s10,80000170 <main+0xdc>
80000160:	ff0b8b13          	addi	s6,s7,-16
80000164:	000c0913          	addi	s2,s8,0
80000168:	000c8a93          	addi	s5,s9,0
8000016c:	fd1ff06f          	jal	zero,8000013c <main+0xa8>
80000170:	00100513          	addi	a0,zero,1
80000174:	ef1ff0ef          	jal	ra,80000064 <check>
80000178:	00000513          	addi	a0,zero,0
8000017c:	02c12083          	lw	ra,44(sp)
80000180:	02812403          	lw	s0,40(sp)
80000184:	02412483          	lw	s1,36(sp)
80000188:	02012903          	lw	s2,32(sp)
8000018c:	01c12983          	lw	s3,28(sp)
80000190:	01812a03          	lw	s4,24(sp)
80000194:	01412a83          	lw	s5,20(sp)
80000198:	01012b03          	lw	s6,16(sp)
8000019c:	00c12b83          	lw	s7,12(sp)
800001a0:	00812c03          	lw	s8,8(sp)
800001a4:	00412c83          	lw	s9,4(sp)
800001a8:	00012d03          	lw	s10,0(sp)
800001ac:	03010113          	addi	sp,sp,48
800001b0:	00008067          	jalr	zero,0(ra)
