
build/pascal:     file format elf32-littleriscv


Disassembly of section .text:

80000000 <_start>:
80000000:	ff010113          	addi	sp,sp,-16
80000004:	00112623          	sw	ra,12(sp)
80000008:	00000517          	auipc	a0,0x0
8000000c:	25050513          	addi	a0,a0,592 # 80000258 <a>
80000010:	00000597          	auipc	a1,0x0
80000014:	24858593          	addi	a1,a1,584 # 80000258 <a>
80000018:	00b501b3          	add	gp,a0,a1
8000001c:	4011d193          	srai	gp,gp,0x1
80000020:	00000537          	lui	a0,0x0
80000024:	06b50513          	addi	a0,a0,107 # 6b <_start-0x7fffff95>
80000028:	840005b7          	lui	a1,0x84000
8000002c:	ff058593          	addi	a1,a1,-16 # 83fffff0 <_end+0x3ff6ff0>
80000030:	00a5a023          	sw	a0,0(a1)
80000034:	00000537          	lui	a0,0x0
80000038:	0eb50513          	addi	a0,a0,235 # eb <_start-0x7fffff15>
8000003c:	840005b7          	lui	a1,0x84000
80000040:	ff458593          	addi	a1,a1,-12 # 83fffff4 <_end+0x3ff6ff4>
80000044:	00a5a023          	sw	a0,0(a1)
80000048:	030000ef          	jal	ra,80000078 <main>
8000004c:	84000537          	lui	a0,0x84000
80000050:	ff050513          	addi	a0,a0,-16 # 83fffff0 <_end+0x3ff6ff0>
80000054:	00050067          	jalr	zero,0(a0)
80000058:	00c12083          	lw	ra,12(sp)
8000005c:	01010113          	addi	sp,sp,16
80000060:	00008067          	jalr	zero,0(ra)

80000064 <check>:
80000064:	00051863          	bne	a0,zero,80000074 <check+0x10>
80000068:	84000537          	lui	a0,0x84000
8000006c:	ff450513          	addi	a0,a0,-12 # 83fffff4 <_end+0x3ff6ff4>
80000070:	00050067          	jalr	zero,0(a0)
80000074:	00008067          	jalr	zero,0(ra)

80000078 <main>:
80000078:	ff010113          	addi	sp,sp,-16
8000007c:	00112623          	sw	ra,12(sp)
80000080:	00812423          	sw	s0,8(sp)
80000084:	00912223          	sw	s1,4(sp)
80000088:	01212023          	sw	s2,0(sp)
8000008c:	80000437          	lui	s0,0x80000
80000090:	25840613          	addi	a2,s0,600 # 80000258 <a>
80000094:	00100793          	addi	a5,zero,1
80000098:	00f62223          	sw	a5,4(a2)
8000009c:	00f62023          	sw	a5,0(a2)
800000a0:	00860613          	addi	a2,a2,8
800000a4:	25840413          	addi	s0,s0,600
800000a8:	07c40913          	addi	s2,s0,124
800000ac:	00200513          	addi	a0,zero,2
800000b0:	00100593          	addi	a1,zero,1
800000b4:	80000837          	lui	a6,0x80000
800000b8:	25880813          	addi	a6,a6,600 # 80000258 <a>
800000bc:	02c0006f          	jal	zero,800000e8 <main+0x70>
800000c0:	00068713          	addi	a4,a3,0
800000c4:	0007a683          	lw	a3,0(a5)
800000c8:	00e68733          	add	a4,a3,a4
800000cc:	00e7a023          	sw	a4,0(a5)
800000d0:	00478793          	addi	a5,a5,4
800000d4:	fec796e3          	bne	a5,a2,800000c0 <main+0x48>
800000d8:	00b62023          	sw	a1,0(a2)
800000dc:	00150513          	addi	a0,a0,1
800000e0:	00460613          	addi	a2,a2,4
800000e4:	01260a63          	beq	a2,s2,800000f8 <main+0x80>
800000e8:	00480793          	addi	a5,a6,4
800000ec:	00058693          	addi	a3,a1,0
800000f0:	fca5c8e3          	blt	a1,a0,800000c0 <main+0x48>
800000f4:	fe5ff06f          	jal	zero,800000d8 <main+0x60>
800000f8:	800004b7          	lui	s1,0x80000
800000fc:	1dc48493          	addi	s1,s1,476 # 800001dc <ans>
80000100:	00042503          	lw	a0,0(s0)
80000104:	0004a783          	lw	a5,0(s1)
80000108:	40f50533          	sub	a0,a0,a5
8000010c:	00153513          	sltiu	a0,a0,1
80000110:	f55ff0ef          	jal	ra,80000064 <check>
80000114:	00440413          	addi	s0,s0,4
80000118:	00448493          	addi	s1,s1,4
8000011c:	ff2412e3          	bne	s0,s2,80000100 <main+0x88>
80000120:	00100513          	addi	a0,zero,1
80000124:	f41ff0ef          	jal	ra,80000064 <check>
80000128:	00000513          	addi	a0,zero,0
8000012c:	00c12083          	lw	ra,12(sp)
80000130:	00812403          	lw	s0,8(sp)
80000134:	00412483          	lw	s1,4(sp)
80000138:	00012903          	lw	s2,0(sp)
8000013c:	01010113          	addi	sp,sp,16
80000140:	00008067          	jalr	zero,0(ra)
