
build/sub-longlong:     file format elf32-littleriscv


Disassembly of section .text:

80000000 <_start>:
80000000:	ff010113          	addi	sp,sp,-16
80000004:	00112623          	sw	ra,12(sp)
80000008:	00000517          	auipc	a0,0x0
8000000c:	46850513          	addi	a0,a0,1128 # 80000470 <_bss_start>
80000010:	00000597          	auipc	a1,0x0
80000014:	46058593          	addi	a1,a1,1120 # 80000470 <_bss_start>
80000018:	00b501b3          	add	gp,a0,a1
8000001c:	4011d193          	srai	gp,gp,0x1
80000020:	00000537          	lui	a0,0x0
80000024:	06b50513          	addi	a0,a0,107 # 6b <_start-0x7fffff95>
80000028:	840005b7          	lui	a1,0x84000
8000002c:	ff058593          	addi	a1,a1,-16 # 83fffff0 <_end+0x3ff6ff0>
80000030:	00a5a023          	sw	a0,0(a1)
80000034:	00000537          	lui	a0,0x0
80000038:	0eb50513          	addi	a0,a0,235 # eb <_start-0x7fffff15>
8000003c:	840005b7          	lui	a1,0x84000
80000040:	ff458593          	addi	a1,a1,-12 # 83fffff4 <_end+0x3ff6ff4>
80000044:	00a5a023          	sw	a0,0(a1)
80000048:	048000ef          	jal	ra,80000090 <main>
8000004c:	84000537          	lui	a0,0x84000
80000050:	ff050513          	addi	a0,a0,-16 # 83fffff0 <_end+0x3ff6ff0>
80000054:	00050067          	jalr	zero,0(a0)
80000058:	00c12083          	lw	ra,12(sp)
8000005c:	01010113          	addi	sp,sp,16
80000060:	00008067          	jalr	zero,0(ra)

80000064 <check>:
80000064:	00051863          	bne	a0,zero,80000074 <check+0x10>
80000068:	84000537          	lui	a0,0x84000
8000006c:	ff450513          	addi	a0,a0,-12 # 83fffff4 <_end+0x3ff6ff4>
80000070:	00050067          	jalr	zero,0(a0)
80000074:	00008067          	jalr	zero,0(ra)

80000078 <sub>:
80000078:	00050793          	addi	a5,a0,0
8000007c:	40c50533          	sub	a0,a0,a2
80000080:	00a7b7b3          	sltu	a5,a5,a0
80000084:	40d585b3          	sub	a1,a1,a3
80000088:	40f585b3          	sub	a1,a1,a5
8000008c:	00008067          	jalr	zero,0(ra)

80000090 <main>:
80000090:	fd010113          	addi	sp,sp,-48
80000094:	02112623          	sw	ra,44(sp)
80000098:	02812423          	sw	s0,40(sp)
8000009c:	02912223          	sw	s1,36(sp)
800000a0:	03212023          	sw	s2,32(sp)
800000a4:	01312e23          	sw	s3,28(sp)
800000a8:	01412c23          	sw	s4,24(sp)
800000ac:	01512a23          	sw	s5,20(sp)
800000b0:	01612823          	sw	s6,16(sp)
800000b4:	01712623          	sw	s7,12(sp)
800000b8:	80000a37          	lui	s4,0x80000
800000bc:	230a0a13          	addi	s4,s4,560 # 80000230 <ans>
800000c0:	200a0b13          	addi	s6,s4,512
800000c4:	000b0913          	addi	s2,s6,0
800000c8:	00000a93          	addi	s5,zero,0
800000cc:	040b0993          	addi	s3,s6,64
800000d0:	04000b93          	addi	s7,zero,64
800000d4:	000a0493          	addi	s1,s4,0
800000d8:	000b0413          	addi	s0,s6,0
800000dc:	00092683          	lw	a3,0(s2)
800000e0:	00492783          	lw	a5,4(s2)
800000e4:	00042703          	lw	a4,0(s0)
800000e8:	00442603          	lw	a2,4(s0)
800000ec:	40e68733          	sub	a4,a3,a4
800000f0:	00e6b6b3          	sltu	a3,a3,a4
800000f4:	40c787b3          	sub	a5,a5,a2
800000f8:	40d787b3          	sub	a5,a5,a3
800000fc:	0004a503          	lw	a0,0(s1)
80000100:	00e54533          	xor	a0,a0,a4
80000104:	0044a703          	lw	a4,4(s1)
80000108:	00f747b3          	xor	a5,a4,a5
8000010c:	00f56533          	or	a0,a0,a5
80000110:	00153513          	sltiu	a0,a0,1
80000114:	f51ff0ef          	jal	ra,80000064 <check>
80000118:	00840413          	addi	s0,s0,8
8000011c:	00848493          	addi	s1,s1,8
80000120:	fb341ee3          	bne	s0,s3,800000dc <main+0x4c>
80000124:	008a8a93          	addi	s5,s5,8
80000128:	040a0a13          	addi	s4,s4,64
8000012c:	00890913          	addi	s2,s2,8
80000130:	fb7a92e3          	bne	s5,s7,800000d4 <main+0x44>
80000134:	00000513          	addi	a0,zero,0
80000138:	02c12083          	lw	ra,44(sp)
8000013c:	02812403          	lw	s0,40(sp)
80000140:	02412483          	lw	s1,36(sp)
80000144:	02012903          	lw	s2,32(sp)
80000148:	01c12983          	lw	s3,28(sp)
8000014c:	01812a03          	lw	s4,24(sp)
80000150:	01412a83          	lw	s5,20(sp)
80000154:	01012b03          	lw	s6,16(sp)
80000158:	00c12b83          	lw	s7,12(sp)
8000015c:	03010113          	addi	sp,sp,48
80000160:	00008067          	jalr	zero,0(ra)
